; Function Attrs: mustprogress nofree nounwind willreturn memory(write, argmem: none, inaccessiblemem: readwrite) uwtable
define noalias noundef ptr @ZSTDv05_createDCtx() local_unnamed_addr #16 {
  %1 = tail call noalias dereferenceable_or_null(157848) ptr @malloc(i64 noundef 157848) #26
  %2 = icmp eq ptr %1, null
  br i1 %2, label %9, label %3

3:                                                ; preds = %0
  %4 = getelementptr inbounds nuw i8, ptr %1, i64 26672
  store i64 5, ptr %4, align 8, !tbaa !70
  %5 = getelementptr inbounds nuw i8, ptr %1, i64 26732
  store i32 0, ptr %5, align 4, !tbaa !73
  %6 = getelementptr inbounds nuw i8, ptr %1, i64 26640
  %7 = getelementptr inbounds nuw i8, ptr %1, i64 10252
  tail call void @llvm.memset.p0.i64(ptr noundef nonnull align 8 dereferenceable(32) %6, i8 0, i64 32, i1 false)
  store i32 12, ptr %7, align 4, !tbaa !17
  %8 = getelementptr inbounds nuw i8, ptr %1, i64 26736
  store i32 0, ptr %8, align 8, !tbaa !74
  br label %9

9:                                                ; preds = %0, %3
  ret ptr %1
}